; Function Attrs: mustprogress uwtable
define hidden void @_ZN3euf12arith_plugin4undoEv(ptr noundef nonnull align 8 dereferenceable(904) %this) unnamed_addr #3 align 2 {
entry:
  %m_undo = getelementptr inbounds i8, ptr %this, i64 32
  %0 = load ptr, ptr %m_undo, align 8
  %cmp.i.i = icmp eq ptr %0, null
  br i1 %cmp.i.i, label %entry._ZN6vectorIN3euf12arith_plugin6undo_tELb0EjE4backEv.exit_crit_edge, label %if.end.i.i

entry._ZN6vectorIN3euf12arith_plugin6undo_tELb0EjE4backEv.exit_crit_edge: ; preds = %entry
  %.pre = load i32, ptr inttoptr (i64 -4 to ptr), align 4
  %.pre1 = add i32 %.pre, -1
  br label %_ZN6vectorIN3euf12arith_plugin6undo_tELb0EjE4backEv.exit

if.end.i.i:                                       ; preds = %entry
  %arrayidx.i.i = getelementptr inbounds i8, ptr %0, i64 -4
  %1 = load i32, ptr %arrayidx.i.i, align 4
  %2 = add i32 %1, -1
  %3 = zext i32 %2 to i64
  br label %_ZN6vectorIN3euf12arith_plugin6undo_tELb0EjE4backEv.exit

_ZN6vectorIN3euf12arith_plugin6undo_tELb0EjE4backEv.exit: ; preds = %entry._ZN6vectorIN3euf12arith_plugin6undo_tELb0EjE4backEv.exit_crit_edge, %if.end.i.i
  %dec.i.pre-phi = phi i32 [ %.pre1, %entry._ZN6vectorIN3euf12arith_plugin6undo_tELb0EjE4backEv.exit_crit_edge ], [ %2, %if.end.i.i ]
  %retval.0.i.i = phi i64 [ 4294967295, %entry._ZN6vectorIN3euf12arith_plugin6undo_tELb0EjE4backEv.exit_crit_edge ], [ %3, %if.end.i.i ]
  %arrayidx.i1.i = getelementptr inbounds i32, ptr %0, i64 %retval.0.i.i
  %4 = load i32, ptr %arrayidx.i1.i, align 4
  %arrayidx.i = getelementptr inbounds i8, ptr %0, i64 -4
  store i32 %dec.i.pre-phi, ptr %arrayidx.i, align 4
  switch i32 %4, label %sw.default [
    i32 0, label %sw.epilog
    i32 1, label %sw.bb3
  ]

sw.bb3:                                           ; preds = %_ZN6vectorIN3euf12arith_plugin6undo_tELb0EjE4backEv.exit
  br label %sw.epilog

sw.default:                                       ; preds = %_ZN6vectorIN3euf12arith_plugin6undo_tELb0EjE4backEv.exit
  tail call void @_Z26notify_assertion_violationPKciS0_(ptr noundef nonnull @.str, i32 noundef 60, ptr noundef nonnull @.str.2)
  tail call void @exit(i32 noundef 114) #16
  unreachable

sw.epilog:                                        ; preds = %_ZN6vectorIN3euf12arith_plugin6undo_tELb0EjE4backEv.exit, %sw.bb3
  %.sink = phi i64 [ 472, %sw.bb3 ], [ 40, %_ZN6vectorIN3euf12arith_plugin6undo_tELb0EjE4backEv.exit ]
  %m_mul = getelementptr inbounds i8, ptr %this, i64 %.sink
  tail call void @_ZN3euf9ac_plugin4undoEv(ptr noundef nonnull align 8 dereferenceable(432) %m_mul)
  ret void
}